; Function Attrs: mustprogress uwtable
define void @_ZN8proxygen16HTTPCodecPrinter7onErrorEmRKNS_13HTTPExceptionEb(ptr nocapture noundef nonnull readonly align 8 dereferenceable(72) %this, i64 noundef %stream, ptr noundef nonnull align 8 dereferenceable(96) %error, i1 noundef zeroext %newStream) unnamed_addr #3 align 2 {
entry:
  %call = tail call noundef nonnull align 8 dereferenceable(8) ptr @_ZStlsISt11char_traitsIcEERSt13basic_ostreamIcT_ES5_PKc(ptr noundef nonnull align 8 dereferenceable(8) @_ZSt4cout, ptr noundef nonnull @.str.4)
  %vtable = load ptr, ptr %error, align 8
  %vfn = getelementptr inbounds i8, ptr %vtable, i64 16
  %0 = load ptr, ptr %vfn, align 8
  %call2 = tail call noundef ptr %0(ptr noundef nonnull align 8 dereferenceable(48) %error) #17
  %call3 = tail call noundef nonnull align 8 dereferenceable(8) ptr @_ZStlsISt11char_traitsIcEERSt13basic_ostreamIcT_ES5_PKc(ptr noundef nonnull align 8 dereferenceable(8) %call, ptr noundef %call2)
  %call4 = tail call noundef nonnull align 8 dereferenceable(8) ptr @_ZNSolsEPFRSoS_E(ptr noundef nonnull align 8 dereferenceable(8) %call3, ptr noundef nonnull @_ZSt4endlIcSt11char_traitsIcEERSt13basic_ostreamIT_T0_ES6_)
  %callback_ = getelementptr inbounds i8, ptr %this, i64 32
  %1 = load ptr, ptr %callback_, align 8
  %vtable5 = load ptr, ptr %1, align 8
  %vfn6 = getelementptr inbounds i8, ptr %vtable5, i64 72
  %2 = load ptr, ptr %vfn6, align 8
  tail call void %2(ptr noundef nonnull align 8 dereferenceable(8) %1, i64 noundef %stream, ptr noundef nonnull align 8 dereferenceable(96) %error, i1 noundef zeroext %newStream)
  ret void
}